target datalayout = "e-m:e-p270:32:32-p271:32:32-p272:64:64-i64:64-i128:128-f80:128-n8:16:32:64-S128"
target triple = "x86_64-pc-linux-gnu"

%struct._longobject = type { %struct.PyVarObject, [1 x i32] }
%struct.PyVarObject = type { %struct._object, i64 }
%struct._object = type { i64, ptr }
%struct._typeobject = type { %struct.PyVarObject, ptr, i64, i64, ptr, i64, ptr, ptr, ptr, ptr, ptr, ptr, ptr, ptr, ptr, ptr, ptr, ptr, ptr, i64, ptr, ptr, ptr, ptr, i64, ptr, ptr, ptr, ptr, ptr, ptr, ptr, ptr, ptr, i64, ptr, ptr, ptr, ptr, ptr, ptr, ptr, ptr, ptr, ptr, ptr, i32, ptr, ptr }

@PyFloat_Type = external global %struct._typeobject, align 8
@PyLong_Type = external global %struct._typeobject, align 8

; Function Attrs: inlinehint mustprogress nounwind uwtable
define linkonce_odr noundef i64 @_ZSt3absl(i64 noundef %0) #9 comdat {
  %2 = alloca i64, align 8
  store i64 %0, ptr %2, align 8
  %3 = load i64, ptr %2, align 8
  %4 = call i64 @llvm.abs.i64(i64 %3, i1 true)
  ret i64 %4
}

; Function Attrs: inlinehint mustprogress uwtable
define internal void @_ZL10_Py_DECREFP7_object(ptr noundef %0) #13 {
  %2 = alloca ptr, align 8
  store ptr %0, ptr %2, align 8
  %3 = load ptr, ptr %2, align 8
  %4 = getelementptr inbounds nuw %struct._object, ptr %3, i32 0, i32 0
  %5 = load i64, ptr %4, align 8
  %6 = add nsw i64 %5, -1
  store i64 %6, ptr %4, align 8
  %7 = icmp ne i64 %6, 0
  br i1 %7, label %8, label %9

8:                                                ; preds = %1
  br label %11

9:                                                ; preds = %1
  %10 = load ptr, ptr %2, align 8
  call void @_Py_Dealloc(ptr noundef %10)
  br label %11

11:                                               ; preds = %9, %8
  ret void
}

; Function Attrs: alwaysinline mustprogress nounwind uwtable
define linkonce_odr hidden noundef zeroext i1 @_ZN8nanobind6detail8load_intIlLb0EEEbP7_objectjPT_(ptr noundef %0, i32 noundef %1, ptr noundef %2) #18 comdat personality ptr @__gxx_personality_v0 {
  %4 = alloca i1, align 1
  %5 = alloca ptr, align 8
  %6 = alloca i32, align 4
  %7 = alloca ptr, align 8
  %8 = alloca ptr, align 8
  %9 = alloca i64, align 8
  %10 = alloca i64, align 8
  %11 = alloca i32, align 4
  %12 = alloca i64, align 8
  %13 = alloca i64, align 8
  store ptr %0, ptr %5, align 8
  store i32 %1, ptr %6, align 4
  store ptr %2, ptr %7, align 8
  %14 = load ptr, ptr %5, align 8
  %15 = call noundef i32 @_ZL11_Py_IS_TYPEPK7_objectPK11_typeobject(ptr noundef %14, ptr noundef @PyLong_Type)
  %16 = icmp ne i32 %15, 0
  %17 = zext i1 %16 to i64
  %18 = call i64 @llvm.expect.i64(i64 %17, i64 1)
  %19 = icmp ne i64 %18, 0
  br i1 %19, label %20, label %52

20:                                               ; preds = %3
  call void @llvm.lifetime.start.p0(i64 8, ptr %8) #20
  %21 = load ptr, ptr %5, align 8
  store ptr %21, ptr %8, align 8
  %22 = load ptr, ptr %8, align 8
  %23 = invoke noundef zeroext i1 @_ZN8nanobind6detail25PyUnstable_Long_IsCompactEPK11_longobject(ptr noundef %22)
          to label %24 unwind label %55

24:                                               ; preds = %20
  %25 = zext i1 %23 to i64
  %26 = call i64 @llvm.expect.i64(i64 %25, i64 1)
  %27 = icmp ne i64 %26, 0
  br i1 %27, label %28, label %34

28:                                               ; preds = %24
  call void @llvm.lifetime.start.p0(i64 8, ptr %9) #20
  %29 = load ptr, ptr %8, align 8
  %30 = call noundef i64 @_ZN8nanobind6detail28PyUnstable_Long_CompactValueEPK11_longobject(ptr noundef %29)
  store i64 %30, ptr %9, align 8
  call void @llvm.lifetime.start.p0(i64 8, ptr %10) #20
  %31 = load i64, ptr %9, align 8
  store i64 %31, ptr %10, align 8
  %32 = load i64, ptr %10, align 8
  %33 = load ptr, ptr %7, align 8
  store i64 %32, ptr %33, align 8
  store i1 true, ptr %4, align 1
  store i32 1, ptr %11, align 4
  call void @llvm.lifetime.end.p0(i64 8, ptr %10) #20
  call void @llvm.lifetime.end.p0(i64 8, ptr %9) #20
  br label %51

34:                                               ; preds = %24
  call void @llvm.lifetime.start.p0(i64 8, ptr %12) #20
  %35 = load ptr, ptr %5, align 8
  %36 = invoke i64 @PyLong_AsLong(ptr noundef %35)
          to label %37 unwind label %55

37:                                               ; preds = %34
  store i64 %36, ptr %12, align 8
  %38 = load i64, ptr %12, align 8
  %39 = icmp eq i64 %38, -1
  br i1 %39, label %40, label %46

40:                                               ; preds = %37
  %41 = invoke ptr @PyErr_Occurred()
          to label %42 unwind label %55

42:                                               ; preds = %40
  %43 = icmp ne ptr %41, null
  br i1 %43, label %44, label %46

44:                                               ; preds = %42
  invoke void @PyErr_Clear()
          to label %45 unwind label %55

45:                                               ; preds = %44
  store i1 false, ptr %4, align 1
  store i32 1, ptr %11, align 4
  br label %50

46:                                               ; preds = %42, %37
  call void @llvm.lifetime.start.p0(i64 8, ptr %13) #20
  %47 = load i64, ptr %12, align 8
  store i64 %47, ptr %13, align 8
  %48 = load i64, ptr %13, align 8
  %49 = load ptr, ptr %7, align 8
  store i64 %48, ptr %49, align 8
  store i1 true, ptr %4, align 1
  store i32 1, ptr %11, align 4
  call void @llvm.lifetime.end.p0(i64 8, ptr %13) #20
  br label %50

50:                                               ; preds = %46, %45
  call void @llvm.lifetime.end.p0(i64 8, ptr %12) #20
  br label %51

51:                                               ; preds = %50, %28
  call void @llvm.lifetime.end.p0(i64 8, ptr %8) #20
  br label %53

52:                                               ; preds = %3
  store i1 false, ptr %4, align 1
  br label %53

53:                                               ; preds = %52, %51
  %54 = load i1, ptr %4, align 1
  ret i1 %54

55:                                               ; preds = %44, %40, %34, %20
  %56 = landingpad { ptr, i32 }
          catch ptr null
  %57 = extractvalue { ptr, i32 } %56, 0
  call void @__clang_call_terminate(ptr %57) #22
  unreachable
}

; Function Attrs: inlinehint mustprogress uwtable
define internal noundef i32 @_ZL19_PyObject_TypeCheckP7_objectP11_typeobject(ptr noundef %0, ptr noundef %1) #13 {
  %3 = alloca ptr, align 8
  %4 = alloca ptr, align 8
  store ptr %0, ptr %3, align 8
  store ptr %1, ptr %4, align 8
  %5 = load ptr, ptr %3, align 8
  %6 = load ptr, ptr %4, align 8
  %7 = call noundef i32 @_ZL11_Py_IS_TYPEPK7_objectPK11_typeobject(ptr noundef %5, ptr noundef %6)
  %8 = icmp ne i32 %7, 0
  br i1 %8, label %16, label %9

9:                                                ; preds = %2
  %10 = load ptr, ptr %3, align 8
  %11 = getelementptr inbounds nuw %struct._object, ptr %10, i32 0, i32 1
  %12 = load ptr, ptr %11, align 8
  %13 = load ptr, ptr %4, align 8
  %14 = call i32 @PyType_IsSubtype(ptr noundef %12, ptr noundef %13)
  %15 = icmp ne i32 %14, 0
  br label %16

16:                                               ; preds = %9, %2
  %17 = phi i1 [ true, %2 ], [ %15, %9 ]
  %18 = zext i1 %17 to i32
  ret i32 %18
}

; Function Attrs: alwaysinline mustprogress nounwind uwtable
define linkonce_odr hidden noundef i64 @_ZN8nanobind6detail28PyUnstable_Long_CompactValueEPK11_longobject(ptr noundef %0) #18 comdat {
  %2 = alloca ptr, align 8
  store ptr %0, ptr %2, align 8
  %3 = load ptr, ptr %2, align 8
  %4 = getelementptr inbounds nuw %struct.PyVarObject, ptr %3, i32 0, i32 1
  %5 = load i64, ptr %4, align 8
  %6 = load ptr, ptr %2, align 8
  %7 = getelementptr inbounds nuw %struct._longobject, ptr %6, i32 0, i32 1
  %8 = getelementptr inbounds [1 x i32], ptr %7, i64 0, i64 0
  %9 = load i32, ptr %8, align 8
  %10 = zext i32 %9 to i64
  %11 = mul nsw i64 %5, %10
  ret i64 %11
}

; Function Attrs: alwaysinline mustprogress uwtable
define linkonce_odr hidden noundef zeroext i1 @_ZN8nanobind6detail25PyUnstable_Long_IsCompactEPK11_longobject(ptr noundef %0) #17 comdat {
  %2 = alloca ptr, align 8
  store ptr %0, ptr %2, align 8
  %3 = load ptr, ptr %2, align 8
  %4 = getelementptr inbounds nuw %struct.PyVarObject, ptr %3, i32 0, i32 1
  %5 = load i64, ptr %4, align 8
  %6 = call noundef i64 @_ZSt3absl(i64 noundef %5)
  %7 = icmp sle i64 %6, 1
  ret i1 %7
}

; Function Attrs: inlinehint mustprogress nounwind uwtable
define internal noundef i32 @_ZL11_Py_IS_TYPEPK7_objectPK11_typeobject(ptr noundef %0, ptr noundef %1) #9 {
  %3 = alloca ptr, align 8
  %4 = alloca ptr, align 8
  store ptr %0, ptr %3, align 8
  store ptr %1, ptr %4, align 8
  %5 = load ptr, ptr %3, align 8
  %6 = getelementptr inbounds nuw %struct._object, ptr %5, i32 0, i32 1
  %7 = load ptr, ptr %6, align 8
  %8 = load ptr, ptr %4, align 8
  %9 = icmp eq ptr %7, %8
  %10 = zext i1 %9 to i32
  ret i32 %10
}

; Function Attrs: alwaysinline mustprogress nounwind uwtable
define linkonce_odr hidden noundef zeroext i1 @_ZN8nanobind6detail8load_intIlLb1EEEbP7_objectjPT_(ptr noundef %0, i32 noundef %1, ptr noundef %2) #18 comdat personality ptr @__gxx_personality_v0 {
  %4 = alloca i1, align 1
  %5 = alloca ptr, align 8
  %6 = alloca i32, align 4
  %7 = alloca ptr, align 8
  %8 = alloca ptr, align 8
  %9 = alloca i64, align 8
  %10 = alloca i64, align 8
  %11 = alloca i32, align 4
  %12 = alloca i64, align 8
  %13 = alloca i64, align 8
  %14 = alloca ptr, align 8
  %15 = alloca i8, align 1
  store ptr %0, ptr %5, align 8
  store i32 %1, ptr %6, align 4
  store ptr %2, ptr %7, align 8
  %16 = load ptr, ptr %5, align 8
  %17 = call noundef i32 @_ZL11_Py_IS_TYPEPK7_objectPK11_typeobject(ptr noundef %16, ptr noundef @PyLong_Type)
  %18 = icmp ne i32 %17, 0
  %19 = zext i1 %18 to i64
  %20 = call i64 @llvm.expect.i64(i64 %19, i64 1)
  %21 = icmp ne i64 %20, 0
  br i1 %21, label %22, label %54

22:                                               ; preds = %3
  call void @llvm.lifetime.start.p0(i64 8, ptr %8) #20
  %23 = load ptr, ptr %5, align 8
  store ptr %23, ptr %8, align 8
  %24 = load ptr, ptr %8, align 8
  %25 = invoke noundef zeroext i1 @_ZN8nanobind6detail25PyUnstable_Long_IsCompactEPK11_longobject(ptr noundef %24)
          to label %26 unwind label %87

26:                                               ; preds = %22
  %27 = zext i1 %25 to i64
  %28 = call i64 @llvm.expect.i64(i64 %27, i64 1)
  %29 = icmp ne i64 %28, 0
  br i1 %29, label %30, label %36

30:                                               ; preds = %26
  call void @llvm.lifetime.start.p0(i64 8, ptr %9) #20
  %31 = load ptr, ptr %8, align 8
  %32 = call noundef i64 @_ZN8nanobind6detail28PyUnstable_Long_CompactValueEPK11_longobject(ptr noundef %31)
  store i64 %32, ptr %9, align 8
  call void @llvm.lifetime.start.p0(i64 8, ptr %10) #20
  %33 = load i64, ptr %9, align 8
  store i64 %33, ptr %10, align 8
  %34 = load i64, ptr %10, align 8
  %35 = load ptr, ptr %7, align 8
  store i64 %34, ptr %35, align 8
  store i1 true, ptr %4, align 1
  store i32 1, ptr %11, align 4
  call void @llvm.lifetime.end.p0(i64 8, ptr %10) #20
  call void @llvm.lifetime.end.p0(i64 8, ptr %9) #20
  br label %53

36:                                               ; preds = %26
  call void @llvm.lifetime.start.p0(i64 8, ptr %12) #20
  %37 = load ptr, ptr %5, align 8
  %38 = invoke i64 @PyLong_AsLong(ptr noundef %37)
          to label %39 unwind label %87

39:                                               ; preds = %36
  store i64 %38, ptr %12, align 8
  %40 = load i64, ptr %12, align 8
  %41 = icmp eq i64 %40, -1
  br i1 %41, label %42, label %48

42:                                               ; preds = %39
  %43 = invoke ptr @PyErr_Occurred()
          to label %44 unwind label %87

44:                                               ; preds = %42
  %45 = icmp ne ptr %43, null
  br i1 %45, label %46, label %48

46:                                               ; preds = %44
  invoke void @PyErr_Clear()
          to label %47 unwind label %87

47:                                               ; preds = %46
  store i1 false, ptr %4, align 1
  store i32 1, ptr %11, align 4
  br label %52

48:                                               ; preds = %44, %39
  call void @llvm.lifetime.start.p0(i64 8, ptr %13) #20
  %49 = load i64, ptr %12, align 8
  store i64 %49, ptr %13, align 8
  %50 = load i64, ptr %13, align 8
  %51 = load ptr, ptr %7, align 8
  store i64 %50, ptr %51, align 8
  store i1 true, ptr %4, align 1
  store i32 1, ptr %11, align 4
  call void @llvm.lifetime.end.p0(i64 8, ptr %13) #20
  br label %52

52:                                               ; preds = %48, %47
  call void @llvm.lifetime.end.p0(i64 8, ptr %12) #20
  br label %53

53:                                               ; preds = %52, %30
  call void @llvm.lifetime.end.p0(i64 8, ptr %8) #20
  br label %85

54:                                               ; preds = %3
  %55 = load i32, ptr %6, align 4
  %56 = and i32 %55, 1
  %57 = icmp ne i32 %56, 0
  br i1 %57, label %58, label %84

58:                                               ; preds = %54
  %59 = load ptr, ptr %5, align 8
  %60 = invoke noundef i32 @_ZL19_PyObject_TypeCheckP7_objectP11_typeobject(ptr noundef %59, ptr noundef @PyFloat_Type)
          to label %61 unwind label %87

61:                                               ; preds = %58
  %62 = icmp ne i32 %60, 0
  br i1 %62, label %84, label %63

63:                                               ; preds = %61
  call void @llvm.lifetime.start.p0(i64 8, ptr %14) #20
  %64 = load ptr, ptr %5, align 8
  %65 = invoke ptr @PyNumber_Long(ptr noundef %64)
          to label %66 unwind label %87

66:                                               ; preds = %63
  store ptr %65, ptr %14, align 8
  %67 = load ptr, ptr %14, align 8
  %68 = icmp ne ptr %67, null
  br i1 %68, label %69, label %78

69:                                               ; preds = %66
  call void @llvm.lifetime.start.p0(i64 1, ptr %15) #20
  %70 = load ptr, ptr %14, align 8
  %71 = load ptr, ptr %7, align 8
  %72 = call noundef zeroext i1 @_ZN8nanobind6detail8load_intIlLb0EEEbP7_objectjPT_(ptr noundef %70, i32 noundef 0, ptr noundef %71) #20
  %73 = zext i1 %72 to i8
  store i8 %73, ptr %15, align 1
  %74 = load ptr, ptr %14, align 8
  invoke void @_ZL10_Py_DECREFP7_object(ptr noundef %74)
          to label %75 unwind label %87

75:                                               ; preds = %69
  %76 = load i8, ptr %15, align 1, !range !6, !noundef !7
  %77 = trunc i8 %76 to i1
  store i1 %77, ptr %4, align 1
  store i32 1, ptr %11, align 4
  call void @llvm.lifetime.end.p0(i64 1, ptr %15) #20
  br label %81

78:                                               ; preds = %66
  invoke void @PyErr_Clear()
          to label %79 unwind label %87

79:                                               ; preds = %78
  br label %80

80:                                               ; preds = %79
  store i32 0, ptr %11, align 4
  br label %81

81:                                               ; preds = %80, %75
  call void @llvm.lifetime.end.p0(i64 8, ptr %14) #20
  %82 = load i32, ptr %11, align 4
  switch i32 %82, label %90 [
    i32 0, label %83
    i32 1, label %85
  ]

83:                                               ; preds = %81
  br label %84

84:                                               ; preds = %83, %61, %54
  store i1 false, ptr %4, align 1
  br label %85

85:                                               ; preds = %84, %81, %53
  %86 = load i1, ptr %4, align 1
  ret i1 %86

87:                                               ; preds = %78, %69, %63, %58, %46, %42, %36, %22
  %88 = landingpad { ptr, i32 }
          catch ptr null
  %89 = extractvalue { ptr, i32 } %88, 0
  call void @__clang_call_terminate(ptr %89) #22
  unreachable

90:                                               ; preds = %81
  unreachable
}

; Function Attrs: mustprogress nounwind uwtable
define noundef zeroext i1 @_ZN8nanobind6detail8load_i64EP7_objecthPl(ptr noundef %0, i8 noundef zeroext %1, ptr noundef %2) #4 {
  %4 = alloca ptr, align 8
  %5 = alloca i8, align 1
  %6 = alloca ptr, align 8
  store ptr %0, ptr %4, align 8
  store i8 %1, ptr %5, align 1
  store ptr %2, ptr %6, align 8
  %7 = load ptr, ptr %4, align 8
  %8 = load i8, ptr %5, align 1
  %9 = zext i8 %8 to i32
  %10 = load ptr, ptr %6, align 8
  %11 = call noundef zeroext i1 @_ZN8nanobind6detail8load_intIlLb1EEEbP7_objectjPT_(ptr noundef %7, i32 noundef %9, ptr noundef %10) #20
  ret i1 %11
}