; Function Attrs: mustprogress nounwind uwtable
define noundef zeroext i1 @_ZN8nanobind6detail8load_i64EP7_objecthPl(ptr noundef %0, i8 noundef zeroext %1, ptr noundef writeonly captures(none) %2) local_unnamed_addr #9 personality ptr @__gxx_personality_v0 {
  %4 = getelementptr i8, ptr %0, i64 8
  %.val4 = load ptr, ptr %4, align 8
  %.not = icmp eq ptr %.val4, @PyLong_Type
  br i1 %.not, label %5, label %22, !prof !4

5:                                                ; preds = %3
  %6 = getelementptr inbounds nuw i8, ptr %0, i64 16
  %7 = load i64, ptr %6, align 8
  %8 = tail call noundef i64 @llvm.abs.i64(i64 %7, i1 true)
  %9 = icmp samesign ult i64 %8, 2
  br i1 %9, label %10, label %15, !prof !4

10:                                               ; preds = %5
  %11 = getelementptr inbounds nuw i8, ptr %0, i64 24
  %12 = load i32, ptr %11, align 8
  %13 = zext i32 %12 to i64
  %14 = mul nsw i64 %7, %13
  br label %_ZN8nanobind6detail8load_intIlLb1EEEbP7_objectjPT_.exit.sink.split

15:                                               ; preds = %5
  %16 = invoke i64 @PyLong_AsLong(ptr noundef nonnull %0)
          to label %17 unwind label %55

17:                                               ; preds = %15
  %18 = icmp eq i64 %16, -1
  br i1 %18, label %19, label %_ZN8nanobind6detail8load_intIlLb1EEEbP7_objectjPT_.exit.sink.split

19:                                               ; preds = %17
  %20 = invoke ptr @PyErr_Occurred()
          to label %21 unwind label %55

21:                                               ; preds = %19
  %.not26.i = icmp eq ptr %20, null
  br i1 %.not26.i, label %_ZN8nanobind6detail8load_intIlLb1EEEbP7_objectjPT_.exit.sink.split, label %.invoke

22:                                               ; preds = %3
  %23 = and i8 %1, 1
  %.not23.i = icmp eq i8 %23, 0
  %.not.i6 = icmp eq ptr %.val4, @PyFloat_Type
  %or.cond = or i1 %.not23.i, %.not.i6
  br i1 %or.cond, label %_ZN8nanobind6detail8load_intIlLb1EEEbP7_objectjPT_.exit, label %24

24:                                               ; preds = %22
  %25 = invoke i32 @PyType_IsSubtype(ptr noundef %.val4, ptr noundef nonnull @PyFloat_Type)
          to label %_ZL19_PyObject_TypeCheckP7_objectP11_typeobject.exit unwind label %55

_ZL19_PyObject_TypeCheckP7_objectP11_typeobject.exit: ; preds = %24
  %.not12 = icmp eq i32 %25, 0
  br i1 %.not12, label %26, label %_ZN8nanobind6detail8load_intIlLb1EEEbP7_objectjPT_.exit

26:                                               ; preds = %_ZL19_PyObject_TypeCheckP7_objectP11_typeobject.exit
  %27 = invoke ptr @PyNumber_Long(ptr noundef nonnull %0)
          to label %28 unwind label %55

28:                                               ; preds = %26
  %.not25.i.not = icmp eq ptr %27, null
  br i1 %.not25.i.not, label %.invoke, label %29

29:                                               ; preds = %28
  %30 = getelementptr i8, ptr %27, i64 8
  %.val = load ptr, ptr %30, align 8
  %.not13 = icmp eq ptr %.val, @PyLong_Type
  br i1 %.not13, label %31, label %_ZN8nanobind6detail8load_intIlLb0EEEbP7_objectjPT_.exit, !prof !4

31:                                               ; preds = %29
  %32 = getelementptr inbounds nuw i8, ptr %27, i64 16
  %33 = load i64, ptr %32, align 8
  %34 = tail call noundef i64 @llvm.abs.i64(i64 %33, i1 true)
  %35 = icmp samesign ult i64 %34, 2
  br i1 %35, label %36, label %41, !prof !4

36:                                               ; preds = %31
  %37 = getelementptr inbounds nuw i8, ptr %27, i64 24
  %38 = load i32, ptr %37, align 8
  %39 = zext i32 %38 to i64
  %40 = mul nsw i64 %33, %39
  br label %_ZN8nanobind6detail8load_intIlLb0EEEbP7_objectjPT_.exit.sink.split

41:                                               ; preds = %31
  %42 = invoke i64 @PyLong_AsLong(ptr noundef nonnull %27)
          to label %43 unwind label %49

43:                                               ; preds = %41
  %44 = icmp eq i64 %42, -1
  br i1 %44, label %45, label %_ZN8nanobind6detail8load_intIlLb0EEEbP7_objectjPT_.exit.sink.split

45:                                               ; preds = %43
  %46 = invoke ptr @PyErr_Occurred()
          to label %47 unwind label %49

47:                                               ; preds = %45
  %.not12.i = icmp eq ptr %46, null
  br i1 %.not12.i, label %_ZN8nanobind6detail8load_intIlLb0EEEbP7_objectjPT_.exit.sink.split, label %48

48:                                               ; preds = %47
  invoke void @PyErr_Clear()
          to label %_ZN8nanobind6detail8load_intIlLb0EEEbP7_objectjPT_.exit unwind label %49

49:                                               ; preds = %48, %45, %41
  %50 = landingpad { ptr, i32 }
          catch ptr null
  %51 = extractvalue { ptr, i32 } %50, 0
  tail call void @__clang_call_terminate(ptr %51) #29
  unreachable

_ZN8nanobind6detail8load_intIlLb0EEEbP7_objectjPT_.exit.sink.split: ; preds = %43, %47, %36
  %.sink = phi i64 [ %40, %36 ], [ %42, %47 ], [ %42, %43 ]
  store i64 %.sink, ptr %2, align 8
  br label %_ZN8nanobind6detail8load_intIlLb0EEEbP7_objectjPT_.exit

_ZN8nanobind6detail8load_intIlLb0EEEbP7_objectjPT_.exit: ; preds = %_ZN8nanobind6detail8load_intIlLb0EEEbP7_objectjPT_.exit.sink.split, %29, %48
  %.2.i3 = phi i1 [ false, %48 ], [ false, %29 ], [ true, %_ZN8nanobind6detail8load_intIlLb0EEEbP7_objectjPT_.exit.sink.split ]
  %52 = load i64, ptr %27, align 8
  %53 = add nsw i64 %52, -1
  store i64 %53, ptr %27, align 8
  %.not.i7 = icmp eq i64 %53, 0
  br i1 %.not.i7, label %54, label %_ZN8nanobind6detail8load_intIlLb1EEEbP7_objectjPT_.exit

54:                                               ; preds = %_ZN8nanobind6detail8load_intIlLb0EEEbP7_objectjPT_.exit
  invoke void @_Py_Dealloc(ptr noundef nonnull %27)
          to label %_ZN8nanobind6detail8load_intIlLb1EEEbP7_objectjPT_.exit unwind label %55

.invoke:                                          ; preds = %28, %21
  invoke void @PyErr_Clear()
          to label %_ZN8nanobind6detail8load_intIlLb1EEEbP7_objectjPT_.exit unwind label %55

55:                                               ; preds = %.invoke, %54, %24, %26, %19, %15
  %56 = landingpad { ptr, i32 }
          catch ptr null
  %57 = extractvalue { ptr, i32 } %56, 0
  tail call void @__clang_call_terminate(ptr %57) #29
  unreachable

_ZN8nanobind6detail8load_intIlLb1EEEbP7_objectjPT_.exit.sink.split: ; preds = %17, %21, %10
  %.sink14 = phi i64 [ %14, %10 ], [ %16, %21 ], [ %16, %17 ]
  store i64 %.sink14, ptr %2, align 8
  br label %_ZN8nanobind6detail8load_intIlLb1EEEbP7_objectjPT_.exit

_ZN8nanobind6detail8load_intIlLb1EEEbP7_objectjPT_.exit: ; preds = %_ZN8nanobind6detail8load_intIlLb1EEEbP7_objectjPT_.exit.sink.split, %.invoke, %54, %_ZN8nanobind6detail8load_intIlLb0EEEbP7_objectjPT_.exit, %22, %_ZL19_PyObject_TypeCheckP7_objectP11_typeobject.exit
  %.2.i = phi i1 [ false, %_ZL19_PyObject_TypeCheckP7_objectP11_typeobject.exit ], [ false, %22 ], [ %.2.i3, %_ZN8nanobind6detail8load_intIlLb0EEEbP7_objectjPT_.exit ], [ %.2.i3, %54 ], [ false, %.invoke ], [ true, %_ZN8nanobind6detail8load_intIlLb1EEEbP7_objectjPT_.exit.sink.split ]
  ret i1 %.2.i
}